; Function Attrs: mustprogress uwtable
define dso_local noundef nonnull align 8 dereferenceable(24) ptr @_ZN4Luau8TypePath11PathBuilder4retsEv(ptr noundef nonnull returned align 8 dereferenceable(24) %0) local_unnamed_addr #8 align 2 personality ptr @__gxx_personality_v0 {
  %2 = alloca %"class.Luau::Variant", align 8
  call void @llvm.lifetime.start.p0(i64 48, ptr nonnull %2) #29
  store i32 3, ptr %2, align 8, !tbaa !11
  %3 = getelementptr inbounds nuw i8, ptr %2, i64 8
  store i32 1, ptr %3, align 8, !tbaa !45
  %4 = getelementptr inbounds nuw i8, ptr %0, i64 8
  %5 = load ptr, ptr %4, align 8, !tbaa !10
  %6 = getelementptr inbounds nuw i8, ptr %0, i64 16
  %7 = load ptr, ptr %6, align 8, !tbaa !17
  %.not.i.i = icmp eq ptr %5, %7
  br i1 %.not.i.i, label %10, label %.noexc

.noexc:                                           ; preds = %1
  store i32 3, ptr %5, align 8, !tbaa !11
  %8 = getelementptr inbounds nuw i8, ptr %5, i64 8
  store i32 1, ptr %8, align 4, !tbaa !45
  %9 = getelementptr inbounds nuw i8, ptr %5, i64 48
  store ptr %9, ptr %4, align 8, !tbaa !10
  br label %_ZNSt6vectorIN4Luau7VariantIJNS0_8TypePath8PropertyENS2_5IndexENS2_9TypeFieldENS2_9PackFieldENS2_9ReductionEEEESaIS8_EE9push_backEOS8_.exit

10:                                               ; preds = %1
  invoke void @_ZNSt6vectorIN4Luau7VariantIJNS0_8TypePath8PropertyENS2_5IndexENS2_9TypeFieldENS2_9PackFieldENS2_9ReductionEEEESaIS8_EE17_M_realloc_insertIJS8_EEEvN9__gnu_cxx17__normal_iteratorIPS8_SA_EEDpOT_(ptr noundef nonnull align 8 dereferenceable(24) %0, ptr %5, ptr noundef nonnull align 8 dereferenceable(48) %2)
          to label %._ZNSt6vectorIN4Luau7VariantIJNS0_8TypePath8PropertyENS2_5IndexENS2_9TypeFieldENS2_9PackFieldENS2_9ReductionEEEESaIS8_EE9push_backEOS8_.exit_crit_edge unwind label %18

._ZNSt6vectorIN4Luau7VariantIJNS0_8TypePath8PropertyENS2_5IndexENS2_9TypeFieldENS2_9PackFieldENS2_9ReductionEEEESaIS8_EE9push_backEOS8_.exit_crit_edge: ; preds = %10
  %.pre = load i32, ptr %2, align 8, !tbaa !11
  %11 = sext i32 %.pre to i64
  br label %_ZNSt6vectorIN4Luau7VariantIJNS0_8TypePath8PropertyENS2_5IndexENS2_9TypeFieldENS2_9PackFieldENS2_9ReductionEEEESaIS8_EE9push_backEOS8_.exit

_ZNSt6vectorIN4Luau7VariantIJNS0_8TypePath8PropertyENS2_5IndexENS2_9TypeFieldENS2_9PackFieldENS2_9ReductionEEEESaIS8_EE9push_backEOS8_.exit: ; preds = %._ZNSt6vectorIN4Luau7VariantIJNS0_8TypePath8PropertyENS2_5IndexENS2_9TypeFieldENS2_9PackFieldENS2_9ReductionEEEESaIS8_EE9push_backEOS8_.exit_crit_edge, %.noexc
  %12 = phi i64 [ %11, %._ZNSt6vectorIN4Luau7VariantIJNS0_8TypePath8PropertyENS2_5IndexENS2_9TypeFieldENS2_9PackFieldENS2_9ReductionEEEESaIS8_EE9push_backEOS8_.exit_crit_edge ], [ 3, %.noexc ]
  %13 = getelementptr inbounds [5 x ptr], ptr @_ZN4Luau7VariantIJNS_8TypePath8PropertyENS1_5IndexENS1_9TypeFieldENS1_9PackFieldENS1_9ReductionEEE9tableDtorE, i64 0, i64 %12
  %14 = load ptr, ptr %13, align 8, !tbaa !14
  invoke void %14(ptr noundef nonnull %3)
          to label %_ZN4Luau7VariantIJNS_8TypePath8PropertyENS1_5IndexENS1_9TypeFieldENS1_9PackFieldENS1_9ReductionEEED2Ev.exit unwind label %15

15:                                               ; preds = %_ZNSt6vectorIN4Luau7VariantIJNS0_8TypePath8PropertyENS2_5IndexENS2_9TypeFieldENS2_9PackFieldENS2_9ReductionEEEESaIS8_EE9push_backEOS8_.exit
  %16 = landingpad { ptr, i32 }
          catch ptr null
  %17 = extractvalue { ptr, i32 } %16, 0
  call void @__clang_call_terminate(ptr %17) #27
  unreachable

_ZN4Luau7VariantIJNS_8TypePath8PropertyENS1_5IndexENS1_9TypeFieldENS1_9PackFieldENS1_9ReductionEEED2Ev.exit: ; preds = %_ZNSt6vectorIN4Luau7VariantIJNS0_8TypePath8PropertyENS2_5IndexENS2_9TypeFieldENS2_9PackFieldENS2_9ReductionEEEESaIS8_EE9push_backEOS8_.exit
  call void @llvm.lifetime.end.p0(i64 48, ptr nonnull %2) #29
  ret ptr %0

18:                                               ; preds = %10
  %19 = landingpad { ptr, i32 }
          cleanup
  %20 = load i32, ptr %2, align 8, !tbaa !11
  %21 = sext i32 %20 to i64
  %22 = getelementptr inbounds [5 x ptr], ptr @_ZN4Luau7VariantIJNS_8TypePath8PropertyENS1_5IndexENS1_9TypeFieldENS1_9PackFieldENS1_9ReductionEEE9tableDtorE, i64 0, i64 %21
  %23 = load ptr, ptr %22, align 8, !tbaa !14
  invoke void %23(ptr noundef nonnull %3)
          to label %_ZN4Luau7VariantIJNS_8TypePath8PropertyENS1_5IndexENS1_9TypeFieldENS1_9PackFieldENS1_9ReductionEEED2Ev.exit3 unwind label %24

24:                                               ; preds = %18
  %25 = landingpad { ptr, i32 }
          catch ptr null
  %26 = extractvalue { ptr, i32 } %25, 0
  call void @__clang_call_terminate(ptr %26) #27
  unreachable

_ZN4Luau7VariantIJNS_8TypePath8PropertyENS1_5IndexENS1_9TypeFieldENS1_9PackFieldENS1_9ReductionEEED2Ev.exit3: ; preds = %18
  call void @llvm.lifetime.end.p0(i64 48, ptr nonnull %2) #29
  resume { ptr, i32 } %19
}